; Function Attrs: mustprogress uwtable
define noundef zeroext i1 @_ZNK6google8protobuf11MessageLite25SerializeToFileDescriptorEi(ptr noundef nonnull align 8 dereferenceable(16) %0, i32 noundef %1) local_unnamed_addr #3 align 2 personality ptr @__gxx_personality_v0 {
  %3 = alloca %"class.google::protobuf::io::FileOutputStream", align 8
  call void @_ZN6google8protobuf2io16FileOutputStreamC1Eii(ptr noundef nonnull align 8 dereferenceable(72) %3, i32 noundef %1, i32 noundef -1)
  %4 = invoke noundef zeroext i1 @_ZNK6google8protobuf11MessageLite32SerializePartialToZeroCopyStreamEPNS0_2io20ZeroCopyOutputStreamE(ptr noundef nonnull align 8 dereferenceable(16) %0, ptr noundef nonnull %3)
          to label %_ZNK6google8protobuf11MessageLite25SerializeToZeroCopyStreamEPNS0_2io20ZeroCopyOutputStreamE.exit unwind label %9

_ZNK6google8protobuf11MessageLite25SerializeToZeroCopyStreamEPNS0_2io20ZeroCopyOutputStreamE.exit: ; preds = %2
  br i1 %4, label %5, label %7

5:                                                ; preds = %_ZNK6google8protobuf11MessageLite25SerializeToZeroCopyStreamEPNS0_2io20ZeroCopyOutputStreamE.exit
  %6 = invoke noundef zeroext i1 @_ZN6google8protobuf2io26CopyingOutputStreamAdaptor5FlushEv(ptr noundef nonnull align 8 dereferenceable(48) %3)
          to label %7 unwind label %9

7:                                                ; preds = %5, %_ZNK6google8protobuf11MessageLite25SerializeToZeroCopyStreamEPNS0_2io20ZeroCopyOutputStreamE.exit
  %8 = phi i1 [ false, %_ZNK6google8protobuf11MessageLite25SerializeToZeroCopyStreamEPNS0_2io20ZeroCopyOutputStreamE.exit ], [ %6, %5 ]
  call void @_ZN6google8protobuf2io16FileOutputStreamD1Ev(ptr noundef nonnull align 8 dereferenceable(72) %3) #15
  ret i1 %8

9:                                                ; preds = %2, %5
  %10 = landingpad { ptr, i32 }
          cleanup
  call void @_ZN6google8protobuf2io16FileOutputStreamD1Ev(ptr noundef nonnull align 8 dereferenceable(72) %3) #15
  resume { ptr, i32 } %10
}